target datalayout = "e-m:e-p270:32:32-p271:32:32-p272:64:64-i64:64-i128:128-f80:128-n8:16:32:64-S128"
target triple = "x86_64-pc-linux-gnu"

%struct.AVFormatContext = type { ptr, ptr, ptr, ptr, ptr, i32, i32, ptr, i32, ptr, i32, ptr, ptr, i64, i64, i64, i32, i32, i32, i64, i64, ptr, i32, i32, ptr, i32, i32, i32, i32, ptr, i64, i32, i32, %struct.AVIOInterruptCB, i32, i32, i32, i32, i64, i32, i32, i32, i32, i32, i32, i32, i32, i32, i32, i32, i32, i64, i32, i32, i32, i32, i32, ptr, ptr, ptr, ptr, i32, ptr, ptr, ptr, ptr, i32, ptr, ptr, i64, ptr, ptr, ptr, i64 }
%struct.AVIOInterruptCB = type { ptr, ptr }
%struct.HLSContext = type { ptr, ptr, i32, ptr, i32, ptr, i32, ptr, i64, i32, i32, i32, i32, i64, i64, ptr, ptr, ptr, ptr, ptr, i32, i32, i32, i32, i32, i32, ptr, %struct.HLSCryptoContext }
%struct.HLSCryptoContext = type { ptr, [16 x i8], [16 x i8] }
%struct.segment = type { i64, i64, i64, ptr, ptr, i32, [16 x i8], ptr }
%struct.AVInputFormat = type { ptr, ptr, i32, ptr, ptr, ptr, ptr }

@.str.49 = private unnamed_addr constant [4 x i8] c"aac\00", align 1
@.str.138 = private unnamed_addr constant [4 x i8] c"ALL\00", align 1
@.str.153 = private unnamed_addr constant [134 x i8] c"URL %s is not in allowed_segment_extensions, consider updating hls.c and submitting a patch to ffmpeg-devel, if this should be added\0A\00", align 1
@.str.154 = private unnamed_addr constant [4 x i8] c"mp4\00", align 1
@.str.155 = private unnamed_addr constant [36 x i8] c"ts,m2t,m2ts,mts,mpg,m4s,mpeg,mpegts\00", align 1
@.str.156 = private unnamed_addr constant [7 x i8] c"mpegts\00", align 1
@.str.157 = private unnamed_addr constant [41 x i8] c"ts,m2t,m2ts,mts,mpg,m4s,mpeg,mpegts,html\00", align 1
@.str.158 = private unnamed_addr constant [7 x i8] c"webvtt\00", align 1
@.str.159 = private unnamed_addr constant [11 x i8] c"vtt,webvtt\00", align 1
@.str.160 = private unnamed_addr constant [73 x i8] c"detected format %s extension %s mismatches allowed extensions in url %s\0A\00", align 1
@.str.161 = private unnamed_addr constant [5 x i8] c"none\00", align 1

; Function Attrs: nounwind uwtable
define internal i32 @test_segment(ptr noundef %0, ptr noundef %1, ptr noundef %2, ptr noundef %3) #0 {
  %5 = alloca i32, align 4
  %6 = alloca ptr, align 8
  %7 = alloca ptr, align 8
  %8 = alloca ptr, align 8
  %9 = alloca ptr, align 8
  %10 = alloca ptr, align 8
  %11 = alloca i32, align 4
  %12 = alloca i32, align 4
  %13 = alloca i32, align 4
  %14 = alloca ptr, align 8
  store ptr %0, ptr %6, align 8, !tbaa !16
  store ptr %1, ptr %7, align 8, !tbaa !91
  store ptr %2, ptr %8, align 8, !tbaa !54
  store ptr %3, ptr %9, align 8, !tbaa !78
  call void @llvm.lifetime.start.p0(i64 8, ptr %10) #15
  %15 = load ptr, ptr %6, align 8, !tbaa !16
  %16 = getelementptr inbounds nuw %struct.AVFormatContext, ptr %15, i32 0, i32 3
  %17 = load ptr, ptr %16, align 8, !tbaa !18
  store ptr %17, ptr %10, align 8, !tbaa !33
  call void @llvm.lifetime.start.p0(i64 4, ptr %11) #15
  store i32 3, ptr %11, align 4, !tbaa !14
  call void @llvm.lifetime.start.p0(i64 4, ptr %12) #15
  store i32 0, ptr %12, align 4, !tbaa !14
  %18 = load ptr, ptr %10, align 8, !tbaa !33
  %19 = getelementptr inbounds nuw %struct.HLSContext, ptr %18, i32 0, i32 20
  %20 = load i32, ptr %19, align 8, !tbaa !223
  %21 = icmp ne i32 %20, 0
  br i1 %21, label %23, label %22

22:                                               ; preds = %4
  store i32 0, ptr %5, align 4
  store i32 1, ptr %13, align 4
  br label %178

23:                                               ; preds = %4
  %24 = load ptr, ptr %10, align 8, !tbaa !33
  %25 = getelementptr inbounds nuw %struct.HLSContext, ptr %24, i32 0, i32 19
  %26 = load ptr, ptr %25, align 8, !tbaa !224
  %27 = call i32 @strcmp(ptr noundef %26, ptr noundef @.str.138) #14
  %28 = icmp ne i32 %27, 0
  br i1 %28, label %29, label %48

29:                                               ; preds = %23
  %30 = load ptr, ptr %9, align 8, !tbaa !78
  %31 = getelementptr inbounds nuw %struct.segment, ptr %30, i32 0, i32 3
  %32 = load ptr, ptr %31, align 8, !tbaa !124
  %33 = load ptr, ptr %10, align 8, !tbaa !33
  %34 = getelementptr inbounds nuw %struct.HLSContext, ptr %33, i32 0, i32 19
  %35 = load ptr, ptr %34, align 8, !tbaa !224
  %36 = call i32 @av_match_ext(ptr noundef %32, ptr noundef %35)
  %37 = load ptr, ptr %9, align 8, !tbaa !78
  %38 = getelementptr inbounds nuw %struct.segment, ptr %37, i32 0, i32 3
  %39 = load ptr, ptr %38, align 8, !tbaa !124
  %40 = load ptr, ptr %10, align 8, !tbaa !33
  %41 = getelementptr inbounds nuw %struct.HLSContext, ptr %40, i32 0, i32 19
  %42 = load ptr, ptr %41, align 8, !tbaa !224
  %43 = call i32 @ff_match_url_ext(ptr noundef %39, ptr noundef %42)
  %44 = icmp sgt i32 %43, 0
  %45 = zext i1 %44 to i32
  %46 = mul nsw i32 2, %45
  %47 = add nsw i32 %36, %46
  store i32 %47, ptr %11, align 4, !tbaa !14
  br label %48

48:                                               ; preds = %29, %23
  %49 = load i32, ptr %11, align 4, !tbaa !14
  %50 = icmp ne i32 %49, 0
  br i1 %50, label %56, label %51

51:                                               ; preds = %48
  %52 = load ptr, ptr %6, align 8, !tbaa !16
  %53 = load ptr, ptr %9, align 8, !tbaa !78
  %54 = getelementptr inbounds nuw %struct.segment, ptr %53, i32 0, i32 3
  %55 = load ptr, ptr %54, align 8, !tbaa !124
  call void (ptr, i32, ptr, ...) @av_log(ptr noundef %52, i32 noundef 16, ptr noundef @.str.153, ptr noundef %55)
  store i32 -1094995529, ptr %5, align 4
  store i32 1, ptr %13, align 4
  br label %178

56:                                               ; preds = %48
  %57 = load ptr, ptr %7, align 8, !tbaa !91
  %58 = icmp ne ptr %57, null
  br i1 %58, label %59, label %177

59:                                               ; preds = %56
  %60 = load ptr, ptr %7, align 8, !tbaa !91
  %61 = getelementptr inbounds nuw %struct.AVInputFormat, ptr %60, i32 0, i32 3
  %62 = load ptr, ptr %61, align 8, !tbaa !225
  %63 = icmp ne ptr %62, null
  br i1 %63, label %64, label %110

64:                                               ; preds = %59
  %65 = load ptr, ptr %9, align 8, !tbaa !78
  %66 = getelementptr inbounds nuw %struct.segment, ptr %65, i32 0, i32 3
  %67 = load ptr, ptr %66, align 8, !tbaa !124
  %68 = load ptr, ptr %7, align 8, !tbaa !91
  %69 = getelementptr inbounds nuw %struct.AVInputFormat, ptr %68, i32 0, i32 3
  %70 = load ptr, ptr %69, align 8, !tbaa !225
  %71 = call i32 @av_match_ext(ptr noundef %67, ptr noundef %70)
  %72 = load ptr, ptr %9, align 8, !tbaa !78
  %73 = getelementptr inbounds nuw %struct.segment, ptr %72, i32 0, i32 3
  %74 = load ptr, ptr %73, align 8, !tbaa !124
  %75 = load ptr, ptr %7, align 8, !tbaa !91
  %76 = getelementptr inbounds nuw %struct.AVInputFormat, ptr %75, i32 0, i32 3
  %77 = load ptr, ptr %76, align 8, !tbaa !225
  %78 = call i32 @ff_match_url_ext(ptr noundef %74, ptr noundef %77)
  %79 = icmp sgt i32 %78, 0
  %80 = zext i1 %79 to i32
  %81 = mul nsw i32 2, %80
  %82 = add nsw i32 %71, %81
  store i32 %82, ptr %12, align 4, !tbaa !14
  %83 = load ptr, ptr %7, align 8, !tbaa !91
  %84 = getelementptr inbounds nuw %struct.AVInputFormat, ptr %83, i32 0, i32 0
  %85 = load ptr, ptr %84, align 8, !tbaa !127
  %86 = call i32 @av_match_name(ptr noundef @.str.154, ptr noundef %85)
  %87 = icmp ne i32 %86, 0
  br i1 %87, label %94, label %88

88:                                               ; preds = %64
  %89 = load ptr, ptr %7, align 8, !tbaa !91
  %90 = getelementptr inbounds nuw %struct.AVInputFormat, ptr %89, i32 0, i32 0
  %91 = load ptr, ptr %90, align 8, !tbaa !127
  %92 = call i32 @av_match_name(ptr noundef @.str.49, ptr noundef %91)
  %93 = icmp ne i32 %92, 0
  br i1 %93, label %94, label %109

94:                                               ; preds = %88, %64
  %95 = load ptr, ptr %9, align 8, !tbaa !78
  %96 = getelementptr inbounds nuw %struct.segment, ptr %95, i32 0, i32 3
  %97 = load ptr, ptr %96, align 8, !tbaa !124
  %98 = call i32 @av_match_ext(ptr noundef %97, ptr noundef @.str.155)
  %99 = load ptr, ptr %9, align 8, !tbaa !78
  %100 = getelementptr inbounds nuw %struct.segment, ptr %99, i32 0, i32 3
  %101 = load ptr, ptr %100, align 8, !tbaa !124
  %102 = call i32 @ff_match_url_ext(ptr noundef %101, ptr noundef @.str.155)
  %103 = icmp sgt i32 %102, 0
  %104 = zext i1 %103 to i32
  %105 = mul nsw i32 2, %104
  %106 = add nsw i32 %98, %105
  %107 = load i32, ptr %12, align 4, !tbaa !14
  %108 = or i32 %107, %106
  store i32 %108, ptr %12, align 4, !tbaa !14
  br label %109

109:                                              ; preds = %94, %88
  br label %152

110:                                              ; preds = %59
  %111 = load ptr, ptr %7, align 8, !tbaa !91
  %112 = getelementptr inbounds nuw %struct.AVInputFormat, ptr %111, i32 0, i32 0
  %113 = load ptr, ptr %112, align 8, !tbaa !127
  %114 = call i32 @strcmp(ptr noundef %113, ptr noundef @.str.156) #14
  %115 = icmp ne i32 %114, 0
  br i1 %115, label %131, label %116

116:                                              ; preds = %110
  call void @llvm.lifetime.start.p0(i64 8, ptr %14) #15
  store ptr @.str.157, ptr %14, align 8, !tbaa !125
  %117 = load ptr, ptr %9, align 8, !tbaa !78
  %118 = getelementptr inbounds nuw %struct.segment, ptr %117, i32 0, i32 3
  %119 = load ptr, ptr %118, align 8, !tbaa !124
  %120 = load ptr, ptr %14, align 8, !tbaa !125
  %121 = call i32 @av_match_ext(ptr noundef %119, ptr noundef %120)
  %122 = load ptr, ptr %9, align 8, !tbaa !78
  %123 = getelementptr inbounds nuw %struct.segment, ptr %122, i32 0, i32 3
  %124 = load ptr, ptr %123, align 8, !tbaa !124
  %125 = load ptr, ptr %14, align 8, !tbaa !125
  %126 = call i32 @ff_match_url_ext(ptr noundef %124, ptr noundef %125)
  %127 = icmp sgt i32 %126, 0
  %128 = zext i1 %127 to i32
  %129 = mul nsw i32 2, %128
  %130 = add nsw i32 %121, %129
  store i32 %130, ptr %12, align 4, !tbaa !14
  call void @llvm.lifetime.end.p0(i64 8, ptr %14) #15
  br label %151

131:                                              ; preds = %110
  %132 = load ptr, ptr %7, align 8, !tbaa !91
  %133 = getelementptr inbounds nuw %struct.AVInputFormat, ptr %132, i32 0, i32 0
  %134 = load ptr, ptr %133, align 8, !tbaa !127
  %135 = call i32 @strcmp(ptr noundef %134, ptr noundef @.str.158) #14
  %136 = icmp ne i32 %135, 0
  br i1 %136, label %150, label %137

137:                                              ; preds = %131
  %138 = load ptr, ptr %9, align 8, !tbaa !78
  %139 = getelementptr inbounds nuw %struct.segment, ptr %138, i32 0, i32 3
  %140 = load ptr, ptr %139, align 8, !tbaa !124
  %141 = call i32 @av_match_ext(ptr noundef %140, ptr noundef @.str.159)
  %142 = load ptr, ptr %9, align 8, !tbaa !78
  %143 = getelementptr inbounds nuw %struct.segment, ptr %142, i32 0, i32 3
  %144 = load ptr, ptr %143, align 8, !tbaa !124
  %145 = call i32 @ff_match_url_ext(ptr noundef %144, ptr noundef @.str.159)
  %146 = icmp sgt i32 %145, 0
  %147 = zext i1 %146 to i32
  %148 = mul nsw i32 2, %147
  %149 = add nsw i32 %141, %148
  store i32 %149, ptr %12, align 4, !tbaa !14
  br label %150

150:                                              ; preds = %137, %131
  br label %151

151:                                              ; preds = %150, %116
  br label %152

152:                                              ; preds = %151, %109
  %153 = load i32, ptr %11, align 4, !tbaa !14
  %154 = load i32, ptr %12, align 4, !tbaa !14
  %155 = and i32 %153, %154
  %156 = icmp ne i32 %155, 0
  br i1 %156, label %176, label %157

157:                                              ; preds = %152
  %158 = load ptr, ptr %6, align 8, !tbaa !16
  %159 = load ptr, ptr %7, align 8, !tbaa !91
  %160 = getelementptr inbounds nuw %struct.AVInputFormat, ptr %159, i32 0, i32 0
  %161 = load ptr, ptr %160, align 8, !tbaa !127
  %162 = load ptr, ptr %7, align 8, !tbaa !91
  %163 = getelementptr inbounds nuw %struct.AVInputFormat, ptr %162, i32 0, i32 3
  %164 = load ptr, ptr %163, align 8, !tbaa !225
  %165 = icmp ne ptr %164, null
  br i1 %165, label %166, label %170

166:                                              ; preds = %157
  %167 = load ptr, ptr %7, align 8, !tbaa !91
  %168 = getelementptr inbounds nuw %struct.AVInputFormat, ptr %167, i32 0, i32 3
  %169 = load ptr, ptr %168, align 8, !tbaa !225
  br label %171

170:                                              ; preds = %157
  br label %171

171:                                              ; preds = %170, %166
  %172 = phi ptr [ %169, %166 ], [ @.str.161, %170 ]
  %173 = load ptr, ptr %9, align 8, !tbaa !78
  %174 = getelementptr inbounds nuw %struct.segment, ptr %173, i32 0, i32 3
  %175 = load ptr, ptr %174, align 8, !tbaa !124
  call void (ptr, i32, ptr, ...) @av_log(ptr noundef %158, i32 noundef 16, ptr noundef @.str.160, ptr noundef %161, ptr noundef %172, ptr noundef %175)
  store i32 -1094995529, ptr %5, align 4
  store i32 1, ptr %13, align 4
  br label %178

176:                                              ; preds = %152
  br label %177

177:                                              ; preds = %176, %56
  store i32 0, ptr %5, align 4
  store i32 1, ptr %13, align 4
  br label %178

178:                                              ; preds = %177, %171, %51, %22
  call void @llvm.lifetime.end.p0(i64 4, ptr %12) #15
  call void @llvm.lifetime.end.p0(i64 4, ptr %11) #15
  call void @llvm.lifetime.end.p0(i64 8, ptr %10) #15
  %179 = load i32, ptr %5, align 4
  ret i32 %179
}