; Function Attrs: nounwind uwtable
define internal fastcc range(i32 -1094995529, 1) i32 @test_segment(ptr noundef %0, ptr noundef readonly captures(address_is_null) %1, ptr noundef readonly captures(none) %2) unnamed_addr #0 {
  %4 = getelementptr inbounds nuw i8, ptr %0, i64 24
  %5 = load ptr, ptr %4, align 8, !tbaa !13
  %6 = getelementptr inbounds nuw i8, ptr %5, i64 144
  %7 = load i32, ptr %6, align 8, !tbaa !274
  %.not = icmp eq i32 %7, 0
  br i1 %.not, label %81, label %8

8:                                                ; preds = %3
  %9 = getelementptr inbounds nuw i8, ptr %5, i64 136
  %10 = load ptr, ptr %9, align 8, !tbaa !275
  %11 = tail call i32 @strcmp(ptr noundef nonnull dereferenceable(1) %10, ptr noundef nonnull dereferenceable(4) @.str.138) #15
  %.not41 = icmp eq i32 %11, 0
  br i1 %.not41, label %.thread, label %12

12:                                               ; preds = %8
  %13 = getelementptr inbounds nuw i8, ptr %2, i64 24
  %14 = load ptr, ptr %13, align 8, !tbaa !119
  %15 = tail call i32 @av_match_ext(ptr noundef %14, ptr noundef nonnull %10) #16
  %16 = load ptr, ptr %13, align 8, !tbaa !119
  %17 = load ptr, ptr %9, align 8, !tbaa !275
  %18 = tail call i32 @ff_match_url_ext(ptr noundef %16, ptr noundef %17) #16
  %19 = icmp sgt i32 %18, 0
  %20 = select i1 %19, i32 2, i32 0
  %21 = add nsw i32 %20, %15
  %.not42 = icmp eq i32 %21, 0
  br i1 %.not42, label %22, label %.thread

22:                                               ; preds = %12
  %23 = load ptr, ptr %13, align 8, !tbaa !119
  tail call void (ptr, i32, ptr, ...) @av_log(ptr noundef nonnull %0, i32 noundef 16, ptr noundef nonnull @.str.153, ptr noundef %23) #16
  br label %81

.thread:                                          ; preds = %8, %12
  %.0373 = phi i32 [ %21, %12 ], [ 3, %8 ]
  %.not43 = icmp eq ptr %1, null
  br i1 %.not43, label %81, label %24

24:                                               ; preds = %.thread
  %25 = getelementptr inbounds nuw i8, ptr %1, i64 24
  %26 = load ptr, ptr %25, align 8, !tbaa !276
  %.not44 = icmp eq ptr %26, null
  br i1 %.not44, label %51, label %27

27:                                               ; preds = %24
  %28 = getelementptr inbounds nuw i8, ptr %2, i64 24
  %29 = load ptr, ptr %28, align 8, !tbaa !119
  %30 = tail call i32 @av_match_ext(ptr noundef %29, ptr noundef nonnull %26) #16
  %31 = load ptr, ptr %28, align 8, !tbaa !119
  %32 = load ptr, ptr %25, align 8, !tbaa !276
  %33 = tail call i32 @ff_match_url_ext(ptr noundef %31, ptr noundef %32) #16
  %34 = icmp sgt i32 %33, 0
  %35 = select i1 %34, i32 2, i32 0
  %36 = add nsw i32 %35, %30
  %37 = load ptr, ptr %1, align 8, !tbaa !121
  %38 = tail call i32 @av_match_name(ptr noundef nonnull @.str.154, ptr noundef %37) #16
  %.not47 = icmp eq i32 %38, 0
  br i1 %.not47, label %39, label %42

39:                                               ; preds = %27
  %40 = load ptr, ptr %1, align 8, !tbaa !121
  %41 = tail call i32 @av_match_name(ptr noundef nonnull @.str.49, ptr noundef %40) #16
  %.not48 = icmp eq i32 %41, 0
  br i1 %.not48, label %74, label %42

42:                                               ; preds = %39, %27
  %43 = load ptr, ptr %28, align 8, !tbaa !119
  %44 = tail call i32 @av_match_ext(ptr noundef %43, ptr noundef nonnull @.str.155) #16
  %45 = load ptr, ptr %28, align 8, !tbaa !119
  %46 = tail call i32 @ff_match_url_ext(ptr noundef %45, ptr noundef nonnull @.str.155) #16
  %47 = icmp sgt i32 %46, 0
  %48 = select i1 %47, i32 2, i32 0
  %49 = add nsw i32 %48, %44
  %50 = or i32 %49, %36
  br label %74

51:                                               ; preds = %24
  %52 = load ptr, ptr %1, align 8, !tbaa !121
  %53 = tail call i32 @strcmp(ptr noundef nonnull dereferenceable(1) %52, ptr noundef nonnull dereferenceable(7) @.str.156) #15
  %.not45 = icmp eq i32 %53, 0
  br i1 %.not45, label %54, label %63

54:                                               ; preds = %51
  %55 = getelementptr inbounds nuw i8, ptr %2, i64 24
  %56 = load ptr, ptr %55, align 8, !tbaa !119
  %57 = tail call i32 @av_match_ext(ptr noundef %56, ptr noundef nonnull @.str.157) #16
  %58 = load ptr, ptr %55, align 8, !tbaa !119
  %59 = tail call i32 @ff_match_url_ext(ptr noundef %58, ptr noundef nonnull @.str.157) #16
  %60 = icmp sgt i32 %59, 0
  %61 = select i1 %60, i32 2, i32 0
  %62 = add nsw i32 %61, %57
  br label %74

63:                                               ; preds = %51
  %64 = tail call i32 @strcmp(ptr noundef nonnull dereferenceable(1) %52, ptr noundef nonnull dereferenceable(7) @.str.158) #15
  %.not46 = icmp eq i32 %64, 0
  br i1 %.not46, label %65, label %74

65:                                               ; preds = %63
  %66 = getelementptr inbounds nuw i8, ptr %2, i64 24
  %67 = load ptr, ptr %66, align 8, !tbaa !119
  %68 = tail call i32 @av_match_ext(ptr noundef %67, ptr noundef nonnull @.str.159) #16
  %69 = load ptr, ptr %66, align 8, !tbaa !119
  %70 = tail call i32 @ff_match_url_ext(ptr noundef %69, ptr noundef nonnull @.str.159) #16
  %71 = icmp sgt i32 %70, 0
  %72 = select i1 %71, i32 2, i32 0
  %73 = add nsw i32 %72, %68
  br label %74

74:                                               ; preds = %54, %65, %63, %39, %42
  %.036 = phi i32 [ %50, %42 ], [ %36, %39 ], [ 0, %63 ], [ %73, %65 ], [ %62, %54 ]
  %75 = and i32 %.036, %.0373
  %.not49 = icmp eq i32 %75, 0
  br i1 %.not49, label %76, label %81

76:                                               ; preds = %74
  %77 = load ptr, ptr %1, align 8, !tbaa !121
  %78 = load ptr, ptr %25, align 8, !tbaa !276
  %.not50 = icmp eq ptr %78, null
  %spec.select = select i1 %.not50, ptr @.str.161, ptr %78
  %79 = getelementptr inbounds nuw i8, ptr %2, i64 24
  %80 = load ptr, ptr %79, align 8, !tbaa !119
  tail call void (ptr, i32, ptr, ...) @av_log(ptr noundef nonnull %0, i32 noundef 16, ptr noundef nonnull @.str.160, ptr noundef %77, ptr noundef nonnull %spec.select, ptr noundef %80) #16
  br label %81

81:                                               ; preds = %.thread, %74, %3, %76, %22
  %.0 = phi i32 [ -1094995529, %76 ], [ -1094995529, %22 ], [ 0, %3 ], [ 0, %74 ], [ 0, %.thread ]
  ret i32 %.0
}